; Function Attrs: nounwind uwtable
define ptr @l_StateT_monadControl___rarg___lambda__5(ptr noundef %0, ptr noundef %1, ptr noundef %2) #0 {
  %.val = load i32, ptr %2, align 4, !tbaa !4
  %4 = icmp eq i32 %.val, 1
  br i1 %4, label %5, label %17

5:                                                ; preds = %3
  %6 = getelementptr inbounds nuw i8, ptr %2, i64 8
  %7 = load ptr, ptr %6, align 8, !tbaa !9
  %8 = ptrtoint ptr %7 to i64
  %9 = and i64 %8, 1
  %.not24 = icmp eq i64 %9, 0
  br i1 %.not24, label %10, label %lean_dec.exit19

10:                                               ; preds = %5
  %11 = load i32, ptr %7, align 4, !tbaa !4
  %12 = icmp sgt i32 %11, 1
  br i1 %12, label %13, label %15, !prof !13

13:                                               ; preds = %10
  %14 = add nsw i32 %11, -1
  store i32 %14, ptr %7, align 4, !tbaa !4
  br label %lean_dec.exit19

15:                                               ; preds = %10
  %.not.i = icmp eq i32 %11, 0
  br i1 %.not.i, label %lean_dec.exit19, label %16

16:                                               ; preds = %15
  tail call void @lean_dec_ref_cold(ptr noundef nonnull %7) #3
  br label %lean_dec.exit19

lean_dec.exit19:                                  ; preds = %16, %15, %13, %5
  store ptr %0, ptr %6, align 8, !tbaa !9
  br label %43

17:                                               ; preds = %3
  %18 = getelementptr inbounds nuw i8, ptr %2, i64 16
  %19 = load ptr, ptr %18, align 8, !tbaa !9
  %20 = ptrtoint ptr %19 to i64
  %21 = and i64 %20, 1
  %.not = icmp eq i64 %21, 0
  br i1 %.not, label %22, label %lean_inc.exit

22:                                               ; preds = %17
  %.val.i = load i32, ptr %19, align 4, !tbaa !4
  %23 = icmp sgt i32 %.val.i, 0
  br i1 %23, label %24, label %26, !prof !13

24:                                               ; preds = %22
  %25 = add nuw i32 %.val.i, 1
  store i32 %25, ptr %19, align 4, !tbaa !4
  br label %lean_inc.exit

26:                                               ; preds = %22
  %.not.i22 = icmp eq i32 %.val.i, 0
  br i1 %.not.i22, label %lean_inc.exit, label %27

27:                                               ; preds = %26
  tail call void @lean_inc_ref_cold(ptr noundef nonnull %19) #3
  br label %lean_inc.exit

lean_inc.exit:                                    ; preds = %27, %26, %24, %17
  %28 = ptrtoint ptr %2 to i64
  %29 = and i64 %28, 1
  %.not23 = icmp eq i64 %29, 0
  br i1 %.not23, label %30, label %lean_dec.exit

30:                                               ; preds = %lean_inc.exit
  %31 = load i32, ptr %2, align 4, !tbaa !4
  %32 = icmp sgt i32 %31, 1
  br i1 %32, label %33, label %35, !prof !13

33:                                               ; preds = %30
  %34 = add nsw i32 %31, -1
  store i32 %34, ptr %2, align 4, !tbaa !4
  br label %lean_dec.exit

35:                                               ; preds = %30
  %.not.i20 = icmp eq i32 %31, 0
  br i1 %.not.i20, label %lean_dec.exit, label %36

36:                                               ; preds = %35
  tail call void @lean_dec_ref_cold(ptr noundef nonnull %2) #3
  br label %lean_dec.exit

lean_dec.exit:                                    ; preds = %36, %35, %33, %lean_inc.exit
  tail call void @lean_inc_heartbeat() #3
  %37 = tail call noalias ptr @mi_malloc_small(i64 noundef 24) #3
  %38 = icmp eq ptr %37, null
  br i1 %38, label %39, label %lean_alloc_ctor.exit

39:                                               ; preds = %lean_dec.exit
  tail call void @lean_internal_panic_out_of_memory() #4
  unreachable

lean_alloc_ctor.exit:                             ; preds = %lean_dec.exit
  %40 = getelementptr inbounds nuw i8, ptr %37, i64 4
  store i32 1, ptr %37, align 4, !tbaa !4
  store i32 131096, ptr %40, align 4
  %41 = getelementptr inbounds nuw i8, ptr %37, i64 8
  store ptr %0, ptr %41, align 8, !tbaa !9
  %42 = getelementptr inbounds nuw i8, ptr %37, i64 16
  store ptr %19, ptr %42, align 8, !tbaa !9
  br label %43

43:                                               ; preds = %lean_alloc_ctor.exit, %lean_dec.exit19
  %.sink = phi ptr [ %37, %lean_alloc_ctor.exit ], [ %2, %lean_dec.exit19 ]
  %44 = tail call ptr @lean_apply_2(ptr noundef %1, ptr noundef nonnull inttoptr (i64 1 to ptr), ptr noundef nonnull %.sink) #3
  ret ptr %44
}